; Function Attrs: mustprogress uwtable
define internal noundef ptr @_ZL46ggml_backend_cpu_device_get_extra_buffers_typeP19ggml_backend_device(ptr readnone captures(none) %0) #0 personality ptr @__gxx_personality_v0 {
  %2 = load atomic i8, ptr @_ZGVZ39ggml_backend_cpu_get_extra_buffers_typevE5bufts acquire, align 8
  %3 = icmp eq i8 %2, 0
  br i1 %3, label %4, label %_Z39ggml_backend_cpu_get_extra_buffers_typev.exit, !prof !4

4:                                                ; preds = %1
  %5 = tail call i32 @__cxa_guard_acquire(ptr nonnull @_ZGVZ39ggml_backend_cpu_get_extra_buffers_typevE5bufts) #25
  %.not.i = icmp eq i32 %5, 0
  br i1 %.not.i, label %_Z39ggml_backend_cpu_get_extra_buffers_typev.exit, label %6

6:                                                ; preds = %4
  invoke fastcc void @"_ZZ39ggml_backend_cpu_get_extra_buffers_typevENK3$_0clEv"()
          to label %7 unwind label %9

7:                                                ; preds = %6
  %8 = tail call i32 @__cxa_atexit(ptr nonnull @_ZNSt6vectorIP24ggml_backend_buffer_typeSaIS1_EED2Ev, ptr nonnull @_ZZ39ggml_backend_cpu_get_extra_buffers_typevE5bufts, ptr nonnull @__dso_handle) #25
  tail call void @__cxa_guard_release(ptr nonnull @_ZGVZ39ggml_backend_cpu_get_extra_buffers_typevE5bufts) #25
  br label %_Z39ggml_backend_cpu_get_extra_buffers_typev.exit

9:                                                ; preds = %6
  %10 = landingpad { ptr, i32 }
          cleanup
  tail call void @__cxa_guard_abort(ptr nonnull @_ZGVZ39ggml_backend_cpu_get_extra_buffers_typevE5bufts) #25
  resume { ptr, i32 } %10

_Z39ggml_backend_cpu_get_extra_buffers_typev.exit: ; preds = %1, %4, %7
  %11 = load ptr, ptr @_ZZ39ggml_backend_cpu_get_extra_buffers_typevE5bufts, align 8, !tbaa !15
  ret ptr %11
}